target datalayout = "e-m:e-p270:32:32-p271:32:32-p272:64:64-i64:64-i128:128-f80:128-n8:16:32:64-S128"
target triple = "x86_64-pc-linux-gnu"

%struct.G1CollectionSetCandidateInfo = type <{ ptr, double, i32, [4 x i8] }>

; Function Attrs: mustprogress nounwind uwtable
define hidden noundef i32 @_ZN25G1CollectionCandidateList21compare_gc_efficiencyEP28G1CollectionSetCandidateInfoS1_(ptr noundef %0, ptr noundef %1) #1 align 2 {
  %3 = alloca i32, align 4
  %4 = alloca ptr, align 8
  %5 = alloca ptr, align 8
  %6 = alloca double, align 8
  %7 = alloca double, align 8
  store ptr %0, ptr %4, align 8
  store ptr %1, ptr %5, align 8
  %8 = load ptr, ptr %4, align 8
  %9 = getelementptr inbounds %struct.G1CollectionSetCandidateInfo, ptr %8, i32 0, i32 1
  %10 = load double, ptr %9, align 8
  store double %10, ptr %6, align 8
  %11 = load ptr, ptr %5, align 8
  %12 = getelementptr inbounds %struct.G1CollectionSetCandidateInfo, ptr %11, i32 0, i32 1
  %13 = load double, ptr %12, align 8
  store double %13, ptr %7, align 8
  %14 = load double, ptr %6, align 8
  %15 = load double, ptr %7, align 8
  %16 = fcmp ogt double %14, %15
  br i1 %16, label %17, label %18

17:                                               ; preds = %2
  store i32 -1, ptr %3, align 4
  br label %24

18:                                               ; preds = %2
  %19 = load double, ptr %6, align 8
  %20 = load double, ptr %7, align 8
  %21 = fcmp olt double %19, %20
  br i1 %21, label %22, label %23

22:                                               ; preds = %18
  store i32 1, ptr %3, align 4
  br label %24

23:                                               ; preds = %18
  store i32 0, ptr %3, align 4
  br label %24

24:                                               ; preds = %23, %22, %17
  %25 = load i32, ptr %3, align 4
  ret i32 %25
}