; Function Attrs: mustprogress nofree norecurse nosync nounwind willreturn memory(argmem: read) uwtable
define hidden noundef range(i32 -1, 2) i32 @_ZN25G1CollectionCandidateList21compare_gc_efficiencyEP28G1CollectionSetCandidateInfoS1_(ptr nocapture noundef readonly %0, ptr nocapture noundef readonly %1) #3 align 2 {
  %3 = getelementptr inbounds i8, ptr %0, i64 8
  %4 = load double, ptr %3, align 8
  %5 = getelementptr inbounds i8, ptr %1, i64 8
  %6 = load double, ptr %5, align 8
  %7 = fcmp ogt double %4, %6
  %8 = fcmp olt double %4, %6
  %. = zext i1 %8 to i32
  %.0 = select i1 %7, i32 -1, i32 %.
  ret i32 %.0
}